; Function Attrs: nounwind uwtable
define ptr @Gia_Man2SupportAndTest(ptr noundef %0) local_unnamed_addr #0 {
  %2 = tail call i64 @Gia_ManRandomW(i32 noundef 1) #17
  tail call void @Gia_ManFillValue(ptr noundef %0) #17
  %3 = getelementptr i8, ptr %0, i64 24
  %.val = load i32, ptr %3, align 8, !tbaa !28
  %4 = tail call ptr @Gia_ManStart(i32 noundef %.val) #17
  %5 = load ptr, ptr %0, align 8, !tbaa !62
  %.not.i = icmp eq ptr %5, null
  br i1 %.not.i, label %Abc_UtilStrsav.exit, label %6

6:                                                ; preds = %1
  %7 = tail call i64 @strlen(ptr noundef nonnull readonly dereferenceable(1) %5) #19
  %8 = add i64 %7, 1
  %9 = tail call noalias ptr @malloc(i64 noundef %8) #16
  %10 = tail call ptr @strcpy(ptr noundef nonnull dereferenceable(1) %9, ptr noundef nonnull readonly dereferenceable(1) %5) #17
  br label %Abc_UtilStrsav.exit

Abc_UtilStrsav.exit:                              ; preds = %1, %6
  %11 = phi ptr [ %9, %6 ], [ null, %1 ]
  store ptr %11, ptr %4, align 8, !tbaa !62
  %12 = getelementptr inbounds nuw i8, ptr %0, i64 8
  %13 = load ptr, ptr %12, align 8, !tbaa !63
  %.not.i41 = icmp eq ptr %13, null
  br i1 %.not.i41, label %Abc_UtilStrsav.exit42, label %14

14:                                               ; preds = %Abc_UtilStrsav.exit
  %15 = tail call i64 @strlen(ptr noundef nonnull readonly dereferenceable(1) %13) #19
  %16 = add i64 %15, 1
  %17 = tail call noalias ptr @malloc(i64 noundef %16) #16
  %18 = tail call ptr @strcpy(ptr noundef nonnull dereferenceable(1) %17, ptr noundef nonnull readonly dereferenceable(1) %13) #17
  br label %Abc_UtilStrsav.exit42

Abc_UtilStrsav.exit42:                            ; preds = %Abc_UtilStrsav.exit, %14
  %19 = phi ptr [ %17, %14 ], [ null, %Abc_UtilStrsav.exit ]
  %20 = getelementptr inbounds nuw i8, ptr %4, i64 8
  store ptr %19, ptr %20, align 8, !tbaa !63
  tail call void @Gia_ManHashAlloc(ptr noundef nonnull %4) #17
  %21 = getelementptr i8, ptr %0, i64 32
  %.val37 = load ptr, ptr %21, align 8, !tbaa !50
  %22 = getelementptr inbounds nuw i8, ptr %.val37, i64 8
  store i32 0, ptr %22, align 4, !tbaa !64
  %23 = tail call ptr @Gia_Man2SuppStart(ptr noundef nonnull %4)
  %24 = load i32, ptr %3, align 8, !tbaa !28
  %25 = icmp sgt i32 %24, 1
  br i1 %25, label %.lr.ph, label %.critedge

.lr.ph:                                           ; preds = %Abc_UtilStrsav.exit42, %63
  %indvars.iv = phi i64 [ %indvars.iv.next, %63 ], [ 1, %Abc_UtilStrsav.exit42 ]
  %.val35 = load ptr, ptr %21, align 8, !tbaa !50
  %26 = getelementptr inbounds nuw %struct.Gia_Obj_t_, ptr %.val35, i64 %indvars.iv
  %.val38 = load i64, ptr %26, align 4
  %27 = and i64 %.val38, 2147483648
  %.not.i43 = icmp eq i64 %27, 0
  %28 = and i64 %.val38, 536870911
  %29 = icmp ne i64 %28, 536870911
  %narrow.i = and i1 %.not.i43, %29
  br i1 %narrow.i, label %30, label %48

30:                                               ; preds = %.lr.ph
  %31 = sub nsw i64 0, %28
  %32 = getelementptr inbounds %struct.Gia_Obj_t_, ptr %26, i64 %31, i32 1
  %33 = load i32, ptr %32, align 4, !tbaa !64
  %34 = trunc i64 %.val38 to i32
  %35 = lshr i32 %34, 29
  %36 = and i32 %35, 1
  %37 = xor i32 %33, %36
  %38 = lshr i64 %.val38, 32
  %39 = and i64 %38, 536870911
  %40 = sub nsw i64 0, %39
  %41 = getelementptr inbounds %struct.Gia_Obj_t_, ptr %26, i64 %40, i32 1
  %42 = load i32, ptr %41, align 4, !tbaa !64
  %43 = lshr i64 %.val38, 61
  %44 = trunc nuw nsw i64 %43 to i32
  %45 = and i32 %44, 1
  %46 = xor i32 %42, %45
  %47 = tail call i32 @Gia_Man2SupportAnd(ptr noundef %23, i32 noundef %37, i32 noundef %46)
  br label %.sink.split

48:                                               ; preds = %.lr.ph
  %49 = and i64 %.val38, 2684354559
  %narrow.i44.not = icmp eq i64 %49, 2684354559
  br i1 %narrow.i44.not, label %50, label %52

50:                                               ; preds = %48
  %51 = tail call fastcc i32 @Gia_ManAppendCi(ptr noundef nonnull %4)
  br label %.sink.split

52:                                               ; preds = %48
  %.not.i45 = icmp ne i64 %27, 0
  %narrow.i46 = and i1 %.not.i45, %29
  br i1 %narrow.i46, label %53, label %63

53:                                               ; preds = %52
  %54 = sub nsw i64 0, %28
  %55 = getelementptr inbounds %struct.Gia_Obj_t_, ptr %26, i64 %54, i32 1
  %56 = load i32, ptr %55, align 4, !tbaa !64
  %57 = trunc i64 %.val38 to i32
  %58 = lshr i32 %57, 29
  %59 = and i32 %58, 1
  %60 = xor i32 %56, %59
  %61 = tail call fastcc i32 @Gia_ManAppendCo(ptr noundef nonnull %4, i32 noundef %60)
  br label %.sink.split

.sink.split:                                      ; preds = %50, %53, %30
  %.sink = phi i32 [ %47, %30 ], [ %61, %53 ], [ %51, %50 ]
  %62 = getelementptr inbounds nuw i8, ptr %26, i64 8
  store i32 %.sink, ptr %62, align 4, !tbaa !64
  br label %63

63:                                               ; preds = %.sink.split, %52
  %indvars.iv.next = add nuw nsw i64 %indvars.iv, 1
  %64 = load i32, ptr %3, align 8, !tbaa !28
  %65 = sext i32 %64 to i64
  %66 = icmp slt i64 %indvars.iv.next, %65
  br i1 %66, label %.lr.ph, label %.critedge, !llvm.loop !110

.critedge:                                        ; preds = %63, %Abc_UtilStrsav.exit42
  tail call void @Gia_Man2SuppStop(ptr noundef %23)
  %67 = getelementptr i8, ptr %0, i64 16
  %.val40 = load i32, ptr %67, align 8, !tbaa !67
  tail call void @Gia_ManSetRegNum(ptr noundef nonnull %4, i32 noundef %.val40) #17
  %68 = tail call ptr @Gia_ManCleanup(ptr noundef nonnull %4) #17
  tail call void @Gia_ManStop(ptr noundef nonnull %4) #17
  ret ptr %68
}